# SymbolsHelper-Confirmed: 6.6.0 amd64
libKF6NewStuffCore.so.6 libkf6newstuffcore6 #MINVER#
* Build-Depends-Package: libkf6newstuff-dev
 _ZGVZN9QMetaType21registerConverterImplI5QListIN7KNSCore5EntryEE9QIterableI13QMetaSequenceEEEbSt8functionIFbPKvPvEES_S_E10unregister@Base 6.0.0
 _ZGVZN9QMetaType21registerConverterImplI5QListISt4pairI10QByteArrayS3_EE9QIterableI13QMetaSequenceEEEbSt8functionIFbPKvPvEES_S_E10unregister@Base 6.0.0
 _ZGVZN9QMetaType21registerConverterImplISt4pairI10QByteArrayS2_EN17QtMetaTypePrivate25QPairVariantInterfaceImplEEEbSt8functionIFbPKvPvEES_S_E10unregister@Base 6.0.0
 _ZGVZN9QMetaType23registerMutableViewImplI5QListIN7KNSCore5EntryEE9QIterableI13QMetaSequenceEEEbSt8functionIFbPvS9_EES_S_E10unregister@Base 6.0.0
 _ZGVZN9QMetaType23registerMutableViewImplI5QListISt4pairI10QByteArrayS3_EE9QIterableI13QMetaSequenceEEEbSt8functionIFbPvSA_EES_S_E10unregister@Base 6.0.0
 _ZN13QMetaSequence12MetaSequenceI5QListIN7KNSCore5EntryEEE5valueE@Base 6.0.0
 _ZN13QMetaSequence12MetaSequenceI5QListISt4pairI10QByteArrayS3_EEE5valueE@Base 6.0.0
 _ZN7KNSCore10EngineBase11addProviderE14QSharedPointerINS_8ProviderEE@Base 6.0.0
 _ZN7KNSCore10EngineBase11qt_metacallEN11QMetaObject4CallEiPPv@Base 6.0.0
 _ZN7KNSCore10EngineBase11qt_metacastEPKc@Base 6.0.0
 _ZN7KNSCore10EngineBase11userCanVoteERKNS_5EntryE@Base 6.0.0
 _ZN7KNSCore10EngineBase12addTagFilterERK7QString@Base 6.0.0
 _ZN7KNSCore10EngineBase12setTagFilterERK5QListI7QStringE@Base 6.0.0
 _ZN7KNSCore10EngineBase12updateStatusEv@Base 6.0.0
 _ZN7KNSCore10EngineBase13loadProvidersEv@Base 6.0.0
 _ZN7KNSCore10EngineBase13searchPresetsEv@Base 6.0.0
 _ZN7KNSCore10EngineBase13signalMessageERK7QString@Base 6.0.0
 _ZN7KNSCore10EngineBase15loadingProviderEv@Base 6.0.0
 _ZN7KNSCore10EngineBase15signalErrorCodeENS_9ErrorCode9ErrorCodeERK7QStringRK8QVariant@Base 6.0.0
 _ZN7KNSCore10EngineBase15useLabelChangedEv@Base 6.0.0
 _ZN7KNSCore10EngineBase16providersChangedEv@Base 6.0.0
 _ZN7KNSCore10EngineBase16staticMetaObjectE@Base 6.0.0
 _ZN7KNSCore10EngineBase16userCanBecomeFanERKNS_5EntryE@Base 6.0.0
 _ZN7KNSCore10EngineBase18categoriesMetadataEv@Base 6.0.0
 _ZN7KNSCore10EngineBase19providerInitializedEPNS_8ProviderE@Base 6.0.0
 _ZN7KNSCore10EngineBase19slotProvidersFailedEv@Base 6.0.0
 _ZN7KNSCore10EngineBase20addDownloadTagFilterERK7QString@Base 6.0.0
 _ZN7KNSCore10EngineBase20atticaProviderLoadedERKN6Attica8ProviderE@Base 6.0.0
 _ZN7KNSCore10EngineBase20availableConfigFilesEv@Base 6.0.0
 _ZN7KNSCore10EngineBase20setDownloadTagFilterERK5QListI7QStringE@Base 6.0.0
 _ZN7KNSCore10EngineBase20uploadEnabledChangedEv@Base 6.0.0
 _ZN7KNSCore10EngineBase21signalProvidersLoadedEv@Base 6.0.0
 _ZN7KNSCore10EngineBase22slotProviderFileLoadedERK12QDomDocument@Base 6.0.0
 _ZN7KNSCore10EngineBase25contentWarningTypeChangedEv@Base 6.3.0
 _ZN7KNSCore10EngineBase25signalSearchPresetsLoadedERK5QListINS_8Provider12SearchPresetEE@Base 6.0.0
 _ZN7KNSCore10EngineBase29signalCategoriesMetadataLodedERK5QListINS_8Provider16CategoryMetadataEE@Base 6.0.0
 _ZN7KNSCore10EngineBase4initERK7QString@Base 6.0.0
 _ZN7KNSCore10EngineBase4voteERKNS_5EntryEj@Base 6.0.0
 _ZN7KNSCore10EngineBase6searchERKNS_8Provider13SearchRequestE@Base 6.0.0
 _ZN7KNSCore10EngineBase9becomeFanERKNS_5EntryE@Base 6.0.0
 _ZN7KNSCore10EngineBaseC1EP7QObject@Base 6.0.0
 _ZN7KNSCore10EngineBaseC2EP7QObject@Base 6.0.0
 _ZN7KNSCore10EngineBaseD0Ev@Base 6.0.0
 _ZN7KNSCore10EngineBaseD1Ev@Base 6.0.0
 _ZN7KNSCore10EngineBaseD2Ev@Base 6.0.0
 _ZN7KNSCore10ItemsModel10jobStartedEP4KJobRK7QString@Base 6.0.0
 _ZN7KNSCore10ItemsModel11loadPreviewERKNS_5EntryENS1_11PreviewTypeE@Base 6.0.0
 _ZN7KNSCore10ItemsModel11qt_metacallEN11QMetaObject4CallEiPPv@Base 6.0.0
 _ZN7KNSCore10ItemsModel11qt_metacastEPKc@Base 6.0.0
 _ZN7KNSCore10ItemsModel11removeEntryERKNS_5EntryE@Base 6.0.0
 _ZN7KNSCore10ItemsModel12clearEntriesEv@Base 6.0.0
 _ZN7KNSCore10ItemsModel16slotEntryChangedERKNS_5EntryE@Base 6.0.0
 _ZN7KNSCore10ItemsModel16staticMetaObjectE@Base 6.0.0
 _ZN7KNSCore10ItemsModel17slotEntriesLoadedERK5QListINS_5EntryEE@Base 6.0.0
 _ZN7KNSCore10ItemsModel22slotEntryPreviewLoadedERKNS_5EntryENS1_11PreviewTypeE@Base 6.0.0
 _ZN7KNSCore10ItemsModel8addEntryERKNS_5EntryE@Base 6.0.0
 _ZN7KNSCore10ItemsModelC1EPNS_10EngineBaseEP7QObject@Base 6.0.0
 _ZN7KNSCore10ItemsModelC2EPNS_10EngineBaseEP7QObject@Base 6.0.0
 _ZN7KNSCore10ItemsModelD0Ev@Base 6.0.0
 _ZN7KNSCore10ItemsModelD1Ev@Base 6.0.0
 _ZN7KNSCore10ItemsModelD2Ev@Base 6.0.0
 _ZN7KNSCore11ImageLoader11qt_metacallEN11QMetaObject4CallEiPPv@Base 6.0.0
 _ZN7KNSCore11ImageLoader11qt_metacastEPKc@Base 6.0.0
 _ZN7KNSCore11ImageLoader11signalErrorERKNS_5EntryENS1_11PreviewTypeERK7QString@Base 6.0.0
 _ZN7KNSCore11ImageLoader12slotDownloadEP4KJob@Base 6.0.0
 _ZN7KNSCore11ImageLoader16staticMetaObjectE@Base 6.0.0
 _ZN7KNSCore11ImageLoader19signalPreviewLoadedERKNS_5EntryENS1_11PreviewTypeE@Base 6.0.0
 _ZN7KNSCore11ImageLoader3jobEv@Base 6.0.0
 _ZN7KNSCore11ImageLoader5startEv@Base 6.0.0
 _ZN7KNSCore11ImageLoader8slotDataEP4KJobRK10QByteArray@Base 6.0.0
 _ZN7KNSCore11ImageLoaderC1ERKNS_5EntryENS1_11PreviewTypeEP7QObject@Base 6.0.0
 _ZN7KNSCore11ImageLoaderC2ERKNS_5EntryENS1_11PreviewTypeEP7QObject@Base 6.0.0
 _ZN7KNSCore11Transaction11qt_metacallEN11QMetaObject4CallEiPPv@Base 6.0.0
 _ZN7KNSCore11Transaction11qt_metacastEPKc@Base 6.0.0
 _ZN7KNSCore11Transaction13signalMessageERK7QString@Base 6.0.0
 _ZN7KNSCore11Transaction15signalErrorCodeENS_9ErrorCode9ErrorCodeERK7QStringRK8QVariant@Base 6.0.0
 _ZN7KNSCore11Transaction16signalEntryEventERKNS_5EntryENS1_10EntryEventE@Base 6.0.0
 _ZN7KNSCore11Transaction16staticMetaObjectE@Base 6.0.0
 _ZN7KNSCore11Transaction18downloadLinkLoadedERKNS_5EntryE@Base 6.0.0
 _ZN7KNSCore11Transaction5adoptEPNS_10EngineBaseERKNS_5EntryE@Base 6.0.0
 _ZN7KNSCore11Transaction7installEPNS_10EngineBaseERKNS_5EntryEi@Base 6.0.0
 _ZN7KNSCore11Transaction8finishedEv@Base 6.0.0
 _ZN7KNSCore11Transaction9uninstallEPNS_10EngineBaseERKNS_5EntryE@Base 6.0.0
 _ZN7KNSCore11TransactionC1ERKNS_5EntryEPNS_10EngineBaseE@Base 6.0.0
 _ZN7KNSCore11TransactionC2ERKNS_5EntryEPNS_10EngineBaseE@Base 6.0.0
 _ZN7KNSCore11TransactionD0Ev@Base 6.0.0
 _ZN7KNSCore11TransactionD1Ev@Base 6.0.0
 _ZN7KNSCore11TransactionD2Ev@Base 6.0.0
 _ZN7KNSCore12Installation10readConfigERK12KConfigGroupR7QString@Base 6.0.0
 _ZN7KNSCore12Installation11qt_metacallEN11QMetaObject4CallEiPPv@Base 6.0.0
 _ZN7KNSCore12Installation11qt_metacastEPKc@Base 6.0.0
 _ZN7KNSCore12Installation14archiveEntriesERK7QStringPK17KArchiveDirectory@Base 6.0.0
 _ZN7KNSCore12Installation15downloadPayloadERKNS_5EntryE@Base 6.0.0
 _ZN7KNSCore12Installation16staticMetaObjectE@Base 6.0.0
 _ZN7KNSCore12Installation17slotPayloadResultEP4KJob@Base 6.0.0
 _ZN7KNSCore12Installation18signalEntryChangedERKNS_5EntryE@Base 6.0.0
 _ZN7KNSCore12Installation19signalPayloadLoadedE4QUrl@Base 6.0.0
 _ZN7KNSCore12Installation23signalInstallationErrorERK7QStringRKNS_5EntryE@Base 6.0.0
 _ZN7KNSCore12Installation24signalInstallationFailedERK7QStringRKNS_5EntryE@Base 6.0.0
 _ZN7KNSCore12Installation26runPostInstallationCommandERK7QStringRKNS_5EntryE@Base 6.0.0
 _ZN7KNSCore12Installation26signalInstallationFinishedERKNS_5EntryE@Base 6.0.0
 _ZN7KNSCore12Installation34installDownloadedFileAndUncompressERKNS_5EntryERK7QStringS4_@Base 6.0.0
 _ZN7KNSCore12Installation7installENS_5EntryERK7QString@Base 6.0.0
 _ZN7KNSCore12Installation7installERKNS_5EntryE@Base 6.0.0
 _ZN7KNSCore12Installation9uninstallENS_5EntryE@Base 6.0.0
 _ZN7KNSCore12InstallationC1EP7QObject@Base 6.0.0
 _ZN7KNSCore12InstallationC2EP7QObject@Base 6.0.0
 _ZN7KNSCore13CommentsModel11qt_metacallEN11QMetaObject4CallEiPPv@Base 6.0.0
 _ZN7KNSCore13CommentsModel11qt_metacastEPKc@Base 6.0.0
 _ZN7KNSCore13CommentsModel12entryChangedEv@Base 6.0.0
 _ZN7KNSCore13CommentsModel16staticMetaObjectE@Base 6.0.0
 _ZN7KNSCore13CommentsModel8setEntryERKNS_5EntryE@Base 6.0.0
 _ZN7KNSCore13CommentsModel9fetchMoreERK11QModelIndex@Base 6.0.0
 _ZN7KNSCore13CommentsModelC1EPNS_10EngineBaseE@Base 6.0.0
 _ZN7KNSCore13CommentsModelC2EPNS_10EngineBaseE@Base 6.0.0
 _ZN7KNSCore13CommentsModelD0Ev@Base 6.0.0
 _ZN7KNSCore13CommentsModelD1Ev@Base 6.0.0
 _ZN7KNSCore13CommentsModelD2Ev@Base 6.0.0
 _ZN7KNSCore13ResultsStream11qt_metacallEN11QMetaObject4CallEiPPv@Base 6.0.0
 _ZN7KNSCore13ResultsStream11qt_metacastEPKc@Base 6.0.0
 _ZN7KNSCore13ResultsStream12entriesFoundERK5QListINS_5EntryEE@Base 6.0.0
 _ZN7KNSCore13ResultsStream16staticMetaObjectE@Base 6.0.0
 _ZN7KNSCore13ResultsStream5fetchEv@Base 6.0.0
 _ZN7KNSCore13ResultsStream6finishEv@Base 6.0.0
 _ZN7KNSCore13ResultsStream8finishedEv@Base 6.0.0
 _ZN7KNSCore13ResultsStream9fetchMoreEv@Base 6.0.0
 _ZN7KNSCore13ResultsStreamC1ERKNS_8Provider13SearchRequestEPNS_10EngineBaseE@Base 6.0.0
 _ZN7KNSCore13ResultsStreamC2ERKNS_8Provider13SearchRequestEPNS_10EngineBaseE@Base 6.0.0
 _ZN7KNSCore13ResultsStreamD0Ev@Base 6.0.0
 _ZN7KNSCore13ResultsStreamD1Ev@Base 6.0.0
 _ZN7KNSCore13ResultsStreamD2Ev@Base 6.0.0
 _ZN7KNSCore13replaceBBCodeERK7QString@Base 6.0.0
 _ZN7KNSCore14AtticaProvider10jobSuccessEPN6Attica7BaseJobE@Base 6.6.0
 _ZN7KNSCore14AtticaProvider10loadBasicsEv@Base 6.6.0
 _ZN7KNSCore14AtticaProvider10loadPersonERK7QString@Base 6.6.0
 _ZN7KNSCore14AtticaProvider11loadEntriesERKNS_8Provider13SearchRequestE@Base 6.6.0
 _ZN7KNSCore14AtticaProvider11qt_metacallEN11QMetaObject4CallEiPPv@Base 6.6.0
 _ZN7KNSCore14AtticaProvider11qt_metacastEPKc@Base 6.6.0
 _ZN7KNSCore14AtticaProvider12loadCommentsERKNS_5EntryEii@Base 6.6.0
 _ZN7KNSCore14AtticaProvider12loadedConfigEPN6Attica7BaseJobE@Base 6.6.0
 _ZN7KNSCore14AtticaProvider12loadedPersonEPN6Attica7BaseJobE@Base 6.6.0
 _ZN7KNSCore14AtticaProvider14loadedCommentsEPN6Attica7BaseJobE@Base 6.6.0
 _ZN7KNSCore14AtticaProvider14providerLoadedERKN6Attica8ProviderE@Base 6.6.0
 _ZN7KNSCore14AtticaProvider14setProviderXMLERK11QDomElement@Base 6.6.0
 _ZN7KNSCore14AtticaProvider14votingFinishedEPN6Attica7BaseJobE@Base 6.6.0
 _ZN7KNSCore14AtticaProvider15loadPayloadLinkERKNS_5EntryEi@Base 6.6.0
 _ZN7KNSCore14AtticaProvider16loadEntryDetailsERKNS_5EntryE@Base 6.6.0
 _ZN7KNSCore14AtticaProvider16setCachedEntriesERK5QListINS_5EntryEE@Base 6.6.0
 _ZN7KNSCore14AtticaProvider16staticMetaObjectE@Base 6.6.0
 _ZN7KNSCore14AtticaProvider17becomeFanFinishedEPN6Attica7BaseJobE@Base 6.6.0
 _ZN7KNSCore14AtticaProvider18downloadItemLoadedEPN6Attica7BaseJobE@Base 6.6.0
 _ZN7KNSCore14AtticaProvider20accountBalanceLoadedEPN6Attica7BaseJobE@Base 6.6.0
 _ZN7KNSCore14AtticaProvider22listOfCategoriesLoadedEPN6Attica7BaseJobE@Base 6.6.0
 _ZN7KNSCore14AtticaProvider34onAuthenticationCredentialsMissingERKN6Attica8ProviderE@Base 6.6.0
 _ZN7KNSCore14AtticaProvider4voteERKNS_5EntryEj@Base 6.6.0
 _ZN7KNSCore14AtticaProvider9becomeFanERKNS_5EntryE@Base 6.6.0
 _ZN7KNSCore14AtticaProviderC1ERK5QListI7QStringERKS2_@Base 6.6.0
 _ZN7KNSCore14AtticaProviderC1ERKN6Attica8ProviderERK5QListI7QStringERKS6_@Base 6.6.0
 _ZN7KNSCore14AtticaProviderC2ERK5QListI7QStringERKS2_@Base 6.6.0
 _ZN7KNSCore14AtticaProviderC2ERKN6Attica8ProviderERK5QListI7QStringERKS6_@Base 6.6.0
 _ZN7KNSCore14ProvidersModel11qt_metacallEN11QMetaObject4CallEiPPv@Base 6.0.0
 _ZN7KNSCore14ProvidersModel11qt_metacastEPKc@Base 6.0.0
 _ZN7KNSCore14ProvidersModel13engineChangedEv@Base 6.0.0
 _ZN7KNSCore14ProvidersModel16staticMetaObjectE@Base 6.0.0
 _ZN7KNSCore14ProvidersModel9setEngineEP7QObject@Base 6.0.0
 _ZN7KNSCore14ProvidersModelC1EP7QObject@Base 6.0.0
 _ZN7KNSCore14ProvidersModelC2EP7QObject@Base 6.0.0
 _ZN7KNSCore14ProvidersModelD0Ev@Base 6.0.0
 _ZN7KNSCore14ProvidersModelD1Ev@Base 6.0.0
 _ZN7KNSCore14ProvidersModelD2Ev@Base 6.0.0
 _ZN7KNSCore15QuestionManager11askQuestionEPNS_8QuestionE@Base 6.0.0
 _ZN7KNSCore15QuestionManager11qt_metacallEN11QMetaObject4CallEiPPv@Base 6.0.0
 _ZN7KNSCore15QuestionManager11qt_metacastEPKc@Base 6.0.0
 _ZN7KNSCore15QuestionManager16staticMetaObjectE@Base 6.0.0
 _ZN7KNSCore15QuestionManager8instanceEv@Base 6.0.0
 _ZN7KNSCore15QuestionManagerC1Ev@Base 6.0.0
 _ZN7KNSCore15QuestionManagerC2Ev@Base 6.0.0
 _ZN7KNSCore15QuestionManagerD0Ev@Base 6.0.0
 _ZN7KNSCore15QuestionManagerD1Ev@Base 6.0.0
 _ZN7KNSCore15QuestionManagerD2Ev@Base 6.0.0
 _ZN7KNSCore16QuestionListener11qt_metacallEN11QMetaObject4CallEiPPv@Base 6.0.0
 _ZN7KNSCore16QuestionListener11qt_metacastEPKc@Base 6.0.0
 _ZN7KNSCore16QuestionListener16staticMetaObjectE@Base 6.0.0
 _ZN7KNSCore16QuestionListenerC1EP7QObject@Base 6.0.0
 _ZN7KNSCore16QuestionListenerC2EP7QObject@Base 6.0.0
 _ZN7KNSCore16QuestionListenerD0Ev@Base 6.0.0
 _ZN7KNSCore16QuestionListenerD1Ev@Base 6.0.0
 _ZN7KNSCore16QuestionListenerD2Ev@Base 6.0.0
 _ZN7KNSCore17TagsFilterChecker13filterAcceptsERK5QListI7QStringE@Base 6.0.0
 _ZN7KNSCore17TagsFilterCheckerC1ERK5QListI7QStringE@Base 6.0.0
 _ZN7KNSCore17TagsFilterCheckerC2ERK5QListI7QStringE@Base 6.0.0
 _ZN7KNSCore17TagsFilterCheckerD1Ev@Base 6.0.0
 _ZN7KNSCore17TagsFilterCheckerD2Ev@Base 6.0.0
 _ZN7KNSCore5Cache11qt_metacallEN11QMetaObject4CallEiPPv@Base 6.0.0
 _ZN7KNSCore5Cache11qt_metacastEPKc@Base 6.0.0
 _ZN7KNSCore5Cache12entryChangedERKNS_5EntryE@Base 6.0.0
 _ZN7KNSCore5Cache12readRegistryEv@Base 6.0.0
 _ZN7KNSCore5Cache13insertRequestERKNS_8Provider13SearchRequestERK5QListINS_5EntryEE@Base 6.0.0
 _ZN7KNSCore5Cache13writeRegistryEv@Base 6.0.0
 _ZN7KNSCore5Cache16requestFromCacheERKNS_8Provider13SearchRequestE@Base 6.0.0
 _ZN7KNSCore5Cache16staticMetaObjectE@Base 6.0.0
 _ZN7KNSCore5Cache19registryForProviderERK7QString@Base 6.0.0
 _ZN7KNSCore5Cache20registerChangedEntryERKNS_5EntryE@Base 6.0.0
 _ZN7KNSCore5Cache20removeDeletedEntriesEv@Base 6.0.0
 _ZN7KNSCore5Cache8getCacheERK7QString@Base 6.0.0
 _ZN7KNSCore5CacheC1ERK7QString@Base 6.0.0
 _ZN7KNSCore5CacheC2ERK7QString@Base 6.0.0
 _ZN7KNSCore5CacheD0Ev@Base 6.0.0
 _ZN7KNSCore5CacheD1Ev@Base 6.0.0
 _ZN7KNSCore5CacheD2Ev@Base 6.0.0
 _ZN7KNSCore5Entry10setLicenseERK7QString@Base 6.0.0
 _ZN7KNSCore5Entry10setPayloadERK7QString@Base 6.0.0
 _ZN7KNSCore5Entry10setSummaryERK7QString@Base 6.0.0
 _ZN7KNSCore5Entry10setVersionERK7QString@Base 6.0.0
 _ZN7KNSCore5Entry11setCategoryERK7QString@Base 6.0.0
 _ZN7KNSCore5Entry11setEntryXMLER16QXmlStreamReader@Base 6.0.0
 _ZN7KNSCore5Entry11setEntryXMLERK11QDomElement@Base 6.0.0
 _ZN7KNSCore5Entry11setHomepageERK4QUrl@Base 6.0.0
 _ZN7KNSCore5Entry11setUniqueIdERK7QString@Base 6.0.0
 _ZN7KNSCore5Entry12setChangelogERK7QString@Base 6.0.0
 _ZN7KNSCore5Entry12setEntryTypeENS0_9EntryTypeE@Base 6.0.0
 _ZN7KNSCore5Entry13setNumberFansEi@Base 6.0.0
 _ZN7KNSCore5Entry13setPreviewUrlERK7QStringNS0_11PreviewTypeE@Base 6.0.0
 _ZN7KNSCore5Entry13setProviderIdERK7QString@Base 6.0.0
 _ZN7KNSCore5Entry14setReleaseDateERK5QDate@Base 6.0.0
 _ZN7KNSCore5Entry15setDonationLinkERK7QString@Base 6.0.0
 _ZN7KNSCore5Entry15setEntryDeletedEv@Base 6.0.0
 _ZN7KNSCore5Entry15setPreviewImageERK6QImageNS0_11PreviewTypeE@Base 6.0.0
 _ZN7KNSCore5Entry15setShortSummaryERK7QString@Base 6.0.0
 _ZN7KNSCore5Entry16setDownloadCountEi@Base 6.0.0
 _ZN7KNSCore5Entry16setUpdateVersionERK7QString@Base 6.0.0
 _ZN7KNSCore5Entry16staticMetaObjectE@Base 6.0.0
 _ZN7KNSCore5Entry17setInstalledFilesERK5QListI7QStringE@Base 6.0.0
 _ZN7KNSCore5Entry19setNumberOfCommentsEi@Base 6.0.0
 _ZN7KNSCore5Entry20setKnowledgebaseLinkERK7QString@Base 6.0.0
 _ZN7KNSCore5Entry20setUpdateReleaseDateERK5QDate@Base 6.0.0
 _ZN7KNSCore5Entry28clearDownloadLinkInformationEv@Base 6.0.0
 _ZN7KNSCore5Entry29appendDownloadLinkInformationERKNS0_23DownloadLinkInformationE@Base 6.0.0
 _ZN7KNSCore5Entry29setNumberKnowledgebaseEntriesEi@Base 6.0.0
 _ZN7KNSCore5Entry7setNameERK7QString@Base 6.0.0
 _ZN7KNSCore5Entry7setTagsERK5QListI7QStringE@Base 6.0.0
 _ZN7KNSCore5Entry9setAuthorERKNS_6AuthorE@Base 6.0.0
 _ZN7KNSCore5Entry9setRatingEi@Base 6.0.0
 _ZN7KNSCore5Entry9setSourceENS0_6SourceE@Base 6.0.0
 _ZN7KNSCore5Entry9setStatusENS0_6StatusE@Base 6.0.0
 _ZN7KNSCore5EntryC1ERKS0_@Base 6.0.0
 _ZN7KNSCore5EntryC1Ev@Base 6.0.0
 _ZN7KNSCore5EntryC2ERKS0_@Base 6.0.0
 _ZN7KNSCore5EntryC2Ev@Base 6.0.0
 _ZN7KNSCore5EntryD1Ev@Base 6.0.0
 _ZN7KNSCore5EntryD2Ev@Base 6.0.0
 _ZN7KNSCore5EntryaSERKS0_@Base 6.0.0
 _ZN7KNSCore6Author11setHomepageERK7QString@Base 6.0.0
 _ZN7KNSCore6Author12setAvatarUrlERK4QUrl@Base 6.0.0
 _ZN7KNSCore6Author14setDescriptionERK7QString@Base 6.0.0
 _ZN7KNSCore6Author14setProfilepageERK7QString@Base 6.0.0
 _ZN7KNSCore6Author16staticMetaObjectE@Base 6.0.0
 _ZN7KNSCore6Author5setIdERK7QString@Base 6.0.0
 _ZN7KNSCore6Author7setNameERK7QString@Base 6.0.0
 _ZN7KNSCore6Author8setEmailERK7QString@Base 6.0.0
 _ZN7KNSCore6Author9setJabberERK7QString@Base 6.0.0
 _ZN7KNSCore6AuthorC1ERKS0_@Base 6.0.0
 _ZN7KNSCore6AuthorC1Ev@Base 6.0.0
 _ZN7KNSCore6AuthorC2ERKS0_@Base 6.0.0
 _ZN7KNSCore6AuthorC2Ev@Base 6.0.0
 _ZN7KNSCore6AuthorD1Ev@Base 6.0.0
 _ZN7KNSCore6AuthorD2Ev@Base 6.0.0
 _ZN7KNSCore6AuthoraSERKS0_@Base 6.0.0
 _ZN7KNSCore8Provider10setVersionERK7QString@Base 6.0.0
 _ZN7KNSCore8Provider10setWebsiteERK4QUrl@Base 6.0.0
 _ZN7KNSCore8Provider11qt_metacallEN11QMetaObject4CallEiPPv@Base 6.0.0
 _ZN7KNSCore8Provider11qt_metacastEPKc@Base 6.0.0
 _ZN7KNSCore8Provider11signalErrorERK7QString@Base 6.0.0
 _ZN7KNSCore8Provider12basicsLoadedEv@Base 6.0.0
 _ZN7KNSCore8Provider12personLoadedESt10shared_ptrINS_6AuthorEE@Base 6.0.0
 _ZN7KNSCore8Provider12setTagFilterERK5QListI7QStringE@Base 6.0.0
 _ZN7KNSCore8Provider13loadingFailedERKNS0_13SearchRequestE@Base 6.0.0
 _ZN7KNSCore8Provider14commentsLoadedE5QListISt10shared_ptrINS_7CommentEEE@Base 6.0.0
 _ZN7KNSCore8Provider14setSupportsSslEb@Base 6.0.0
 _ZN7KNSCore8Provider15loadingFinishedERKNS0_13SearchRequestERK5QListINS_5EntryEE@Base 6.0.0
 _ZN7KNSCore8Provider15setContactEmailERK7QString@Base 6.0.0
 _ZN7KNSCore8Provider15signalErrorCodeENS_9ErrorCode9ErrorCodeERK7QStringRK8QVariant@Base 6.0.0
 _ZN7KNSCore8Provider16staticMetaObjectE@Base 6.0.0
 _ZN7KNSCore8Provider17payloadLinkLoadedERKNS_5EntryE@Base 6.0.0
 _ZN7KNSCore8Provider17signalInformationERK7QString@Base 6.0.0
 _ZN7KNSCore8Provider18entryDetailsLoadedERKNS_5EntryE@Base 6.0.0
 _ZN7KNSCore8Provider19providerInitializedEPS0_@Base 6.0.0
 _ZN7KNSCore8Provider19searchPresetsLoadedERK5QListINS0_12SearchPresetEE@Base 6.0.0
 _ZN7KNSCore8Provider20setDownloadTagFilterERK5QListI7QStringE@Base 6.0.0
 _ZN7KNSCore8Provider23categoriesMetadataLodedERK5QListINS0_16CategoryMetadataEE@Base 6.0.0
 _ZN7KNSCore8Provider7setHostERK4QUrl@Base 6.0.0
 _ZN7KNSCore8Provider7setIconERK4QUrl@Base 6.0.0
 _ZN7KNSCore8Provider7setNameERK7QString@Base 6.0.0
 _ZN7KNSCore8ProviderC1Ev@Base 6.0.0
 _ZN7KNSCore8ProviderC2Ev@Base 6.0.0
 _ZN7KNSCore8ProviderD0Ev@Base 6.0.0
 _ZN7KNSCore8ProviderD1Ev@Base 6.0.0
 _ZN7KNSCore8ProviderD2Ev@Base 6.0.0
 _ZN7KNSCore8Question11qt_metacallEN11QMetaObject4CallEiPPv@Base 6.0.0
 _ZN7KNSCore8Question11qt_metacastEPKc@Base 6.0.0
 _ZN7KNSCore8Question11setQuestionERK7QString@Base 6.0.0
 _ZN7KNSCore8Question11setResponseENS0_8ResponseE@Base 6.0.0
 _ZN7KNSCore8Question11setResponseERK7QString@Base 6.0.0
 _ZN7KNSCore8Question15setQuestionTypeENS0_12QuestionTypeE@Base 6.0.0
 _ZN7KNSCore8Question16staticMetaObjectE@Base 6.0.0
 _ZN7KNSCore8Question3askEv@Base 6.0.0
 _ZN7KNSCore8Question7setListERK5QListI7QStringE@Base 6.0.0
 _ZN7KNSCore8Question8setEntryERKNS_5EntryE@Base 6.0.0
 _ZN7KNSCore8Question8setTitleERK7QString@Base 6.0.0
 _ZN7KNSCore8QuestionC1ENS0_12QuestionTypeEP7QObject@Base 6.0.0
 _ZN7KNSCore8QuestionC2ENS0_12QuestionTypeEP7QObject@Base 6.0.0
 _ZN7KNSCore8QuestionD0Ev@Base 6.0.0
 _ZN7KNSCore8QuestionD1Ev@Base 6.0.0
 _ZN7KNSCore8QuestionD2Ev@Base 6.0.0
 _ZN7KNSCore9ErrorCode16staticMetaObjectE@Base 6.0.0
 _ZN7KNSCorelsE6QDebugRKNS_5EntryE@Base 6.0.0
 _ZN7KNSCorelsE6QDebugRKNS_8Provider13SearchRequestE@Base 6.0.0
 _ZNK7KNSCore10EngineBase10categoriesEv@Base 6.0.0
 _ZNK7KNSCore10EngineBase10metaObjectEv@Base 6.0.0
 _ZNK7KNSCore10EngineBase11providerIDsEv@Base 6.0.0
 _ZNK7KNSCore10EngineBase12installationEv@Base 6.0.0
 _ZNK7KNSCore10EngineBase13uploadEnabledEv@Base 6.0.0
 _ZNK7KNSCore10EngineBase15atticaProvidersEv@Base 6.0.0
 _ZNK7KNSCore10EngineBase15defaultProviderEv@Base 6.0.0
 _ZNK7KNSCore10EngineBase17downloadTagFilterEv@Base 6.0.0
 _ZNK7KNSCore10EngineBase18contentWarningTypeEv@Base 6.3.0
 _ZNK7KNSCore10EngineBase18hasAdoptionCommandEv@Base 6.0.0
 _ZNK7KNSCore10EngineBase4nameEv@Base 6.0.0
 _ZNK7KNSCore10EngineBase5cacheEv@Base 6.0.0
 _ZNK7KNSCore10EngineBase8providerERK7QString@Base 6.0.0
 _ZNK7KNSCore10EngineBase8useLabelEv@Base 6.0.0
 _ZNK7KNSCore10EngineBase9providersEv@Base 6.0.0
 _ZNK7KNSCore10EngineBase9tagFilterEv@Base 6.0.0
 _ZNK7KNSCore10ItemsModel10metaObjectEv@Base 6.0.0
 _ZNK7KNSCore10ItemsModel16hasPreviewImagesEv@Base 6.0.0
 _ZNK7KNSCore10ItemsModel3rowERKNS_5EntryE@Base 6.0.0
 _ZNK7KNSCore10ItemsModel4dataERK11QModelIndexi@Base 6.0.0
 _ZNK7KNSCore10ItemsModel8rowCountERK11QModelIndex@Base 6.0.0
 _ZNK7KNSCore11ImageLoader10metaObjectEv@Base 6.0.0
 _ZNK7KNSCore11Transaction10isFinishedEv@Base 6.0.0
 _ZNK7KNSCore11Transaction10metaObjectEv@Base 6.0.0
 _ZNK7KNSCore12Installation10metaObjectEv@Base 6.0.0
 _ZNK7KNSCore12Installation20uncompressionSettingEv@Base 6.0.0
 _ZNK7KNSCore12Installation22targetInstallationPathEv@Base 6.0.0
 _ZNK7KNSCore13CommentsModel10metaObjectEv@Base 6.0.0
 _ZNK7KNSCore13CommentsModel12canFetchMoreERK11QModelIndex@Base 6.0.0
 _ZNK7KNSCore13CommentsModel4dataERK11QModelIndexi@Base 6.0.0
 _ZNK7KNSCore13CommentsModel5entryEv@Base 6.0.0
 _ZNK7KNSCore13CommentsModel8rowCountERK11QModelIndex@Base 6.0.0
 _ZNK7KNSCore13CommentsModel9roleNamesEv@Base 6.0.0
 _ZNK7KNSCore13ResultsStream10metaObjectEv@Base 6.0.0
 _ZNK7KNSCore14AtticaProvider10metaObjectEv@Base 6.6.0
 _ZNK7KNSCore14AtticaProvider13isInitializedEv@Base 6.6.0
 _ZNK7KNSCore14AtticaProvider2idEv@Base 6.6.0
 _ZNK7KNSCore14ProvidersModel10metaObjectEv@Base 6.0.0
 _ZNK7KNSCore14ProvidersModel4dataERK11QModelIndexi@Base 6.0.0
 _ZNK7KNSCore14ProvidersModel6engineEv@Base 6.0.0
 _ZNK7KNSCore14ProvidersModel8rowCountERK11QModelIndex@Base 6.0.0
 _ZNK7KNSCore14ProvidersModel9roleNamesEv@Base 6.0.0
 _ZNK7KNSCore15QuestionManager10metaObjectEv@Base 6.0.0
 _ZNK7KNSCore16QuestionListener10metaObjectEv@Base 6.0.0
 _ZNK7KNSCore5Cache10metaObjectEv@Base 6.0.0
 _ZNK7KNSCore5Cache22entryFromInstalledFileERK7QString@Base 6.0.0
 _ZNK7KNSCore5Cache8registryEv@Base 6.0.0
 _ZNK7KNSCore5Entry10numberFansEv@Base 6.0.0
 _ZNK7KNSCore5Entry10previewUrlENS0_11PreviewTypeE@Base 6.0.0
 _ZNK7KNSCore5Entry10providerIdEv@Base 6.0.0
 _ZNK7KNSCore5Entry11releaseDateEv@Base 6.0.0
 _ZNK7KNSCore5Entry12donationLinkEv@Base 6.0.0
 _ZNK7KNSCore5Entry12previewImageENS0_11PreviewTypeE@Base 6.0.0
 _ZNK7KNSCore5Entry12shortSummaryEv@Base 6.0.0
 _ZNK7KNSCore5Entry13downloadCountEv@Base 6.0.0
 _ZNK7KNSCore5Entry13updateVersionEv@Base 6.0.0
 _ZNK7KNSCore5Entry14installedFilesEv@Base 6.0.0
 _ZNK7KNSCore5Entry16numberOfCommentsEv@Base 6.0.0
 _ZNK7KNSCore5Entry16uninstalledFilesEv@Base 6.0.0
 _ZNK7KNSCore5Entry17downloadLinkCountEv@Base 6.0.0
 _ZNK7KNSCore5Entry17knowledgebaseLinkEv@Base 6.0.0
 _ZNK7KNSCore5Entry17updateReleaseDateEv@Base 6.0.0
 _ZNK7KNSCore5Entry26numberKnowledgebaseEntriesEv@Base 6.0.0
 _ZNK7KNSCore5Entry27downloadLinkInformationListEv@Base 6.0.0
 _ZNK7KNSCore5Entry4nameEv@Base 6.0.0
 _ZNK7KNSCore5Entry4tagsEv@Base 6.0.0
 _ZNK7KNSCore5Entry6authorEv@Base 6.0.0
 _ZNK7KNSCore5Entry6ratingEv@Base 6.0.0
 _ZNK7KNSCore5Entry6sourceEv@Base 6.0.0
 _ZNK7KNSCore5Entry6statusEv@Base 6.0.0
 _ZNK7KNSCore5Entry7isValidEv@Base 6.0.0
 _ZNK7KNSCore5Entry7licenseEv@Base 6.0.0
 _ZNK7KNSCore5Entry7payloadEv@Base 6.0.0
 _ZNK7KNSCore5Entry7summaryEv@Base 6.0.0
 _ZNK7KNSCore5Entry7versionEv@Base 6.0.0
 _ZNK7KNSCore5Entry8categoryEv@Base 6.0.0
 _ZNK7KNSCore5Entry8entryXMLEv@Base 6.0.0
 _ZNK7KNSCore5Entry8homepageEv@Base 6.0.0
 _ZNK7KNSCore5Entry8uniqueIdEv@Base 6.0.0
 _ZNK7KNSCore5Entry9changelogEv@Base 6.0.0
 _ZNK7KNSCore5Entry9entryTypeEv@Base 6.0.0
 _ZNK7KNSCore5EntryeqERKS0_@Base 6.0.0
 _ZNK7KNSCore5EntryltERKS0_@Base 6.0.0
 _ZNK7KNSCore6Author11descriptionEv@Base 6.0.0
 _ZNK7KNSCore6Author11profilepageEv@Base 6.0.0
 _ZNK7KNSCore6Author2idEv@Base 6.0.0
 _ZNK7KNSCore6Author4nameEv@Base 6.0.0
 _ZNK7KNSCore6Author5emailEv@Base 6.0.0
 _ZNK7KNSCore6Author6jabberEv@Base 6.0.0
 _ZNK7KNSCore6Author8homepageEv@Base 6.0.0
 _ZNK7KNSCore6Author9avatarUrlEv@Base 6.0.0
 _ZNK7KNSCore8Provider10metaObjectEv@Base 6.0.0
 _ZNK7KNSCore8Provider11supportsSslEv@Base 6.0.0
 _ZNK7KNSCore8Provider12contactEmailEv@Base 6.0.0
 _ZNK7KNSCore8Provider13SearchRequest14hashForRequestEv@Base 6.0.0
 _ZNK7KNSCore8Provider17downloadTagFilterEv@Base 6.0.0
 _ZNK7KNSCore8Provider4hostEv@Base 6.0.0
 _ZNK7KNSCore8Provider4iconEv@Base 6.0.0
 _ZNK7KNSCore8Provider4nameEv@Base 6.0.0
 _ZNK7KNSCore8Provider7versionEv@Base 6.0.0
 _ZNK7KNSCore8Provider7websiteEv@Base 6.0.0
 _ZNK7KNSCore8Provider9tagFilterEv@Base 6.0.0
 _ZNK7KNSCore8Question10metaObjectEv@Base 6.0.0
 _ZNK7KNSCore8Question12questionTypeEv@Base 6.0.0
 _ZNK7KNSCore8Question4listEv@Base 6.0.0
 _ZNK7KNSCore8Question5entryEv@Base 6.0.0
 _ZNK7KNSCore8Question5titleEv@Base 6.0.0
 _ZNK7KNSCore8Question8questionEv@Base 6.0.0
 _ZNK7KNSCore8Question8responseEv@Base 6.0.0
 _ZSt19piecewise_construct@Base 6.0.0
 _ZTIN6Attica7ItemJobINS_7ContentEEE@Base 6.6.0
 _ZTIN6Attica7ListJobINS_7ContentEEE@Base 6.6.0
 _ZTIN7KNSCore10EngineBaseE@Base 6.0.0
 _ZTIN7KNSCore10ItemsModelE@Base 6.0.0
 _ZTIN7KNSCore11ImageLoaderE@Base 6.0.0
 _ZTIN7KNSCore11TransactionE@Base 6.0.0
 _ZTIN7KNSCore12InstallationE@Base 6.0.0
 _ZTIN7KNSCore13CommentsModelE@Base 6.0.0
 _ZTIN7KNSCore13ResultsStreamE@Base 6.0.0
 _ZTIN7KNSCore14AtticaProviderE@Base 6.6.0
 _ZTIN7KNSCore14ProvidersModelE@Base 6.0.0
 _ZTIN7KNSCore15QuestionManagerE@Base 6.0.0
 _ZTIN7KNSCore16QuestionListenerE@Base 6.0.0
 _ZTIN7KNSCore5CacheE@Base 6.0.0
 _ZTIN7KNSCore8ProviderE@Base 6.0.0
 _ZTIN7KNSCore8QuestionE@Base 6.0.0
 (optional=templinst|arch=armel riscv64)_ZTIN9__gnu_cxx7__mutexE@Base 6.0.0
 (optional=templinst|arch=armel riscv64)_ZTISt11_Mutex_baseILN9__gnu_cxx12_Lock_policyE1EE@Base 6.0.0
 (optional=templinst|arch=!armel !riscv64)_ZTISt11_Mutex_baseILN9__gnu_cxx12_Lock_policyE2EE@Base 6.0.0
 (optional=templinst|arch=armel riscv64)_ZTISt16_Sp_counted_baseILN9__gnu_cxx12_Lock_policyE1EE@Base 6.0.0
 (optional=templinst|arch=!armel !riscv64)_ZTISt16_Sp_counted_baseILN9__gnu_cxx12_Lock_policyE2EE@Base 6.0.0
 _ZTIZN9QMetaType17registerConverterI5QListIN7KNSCore5EntryEE9QIterableI13QMetaSequenceEN9QtPrivate33QSequentialIterableConvertFunctorIS4_EEEEbT1_EUlPKvPvE_@Base 6.0.0
 _ZTIZN9QMetaType17registerConverterI5QListISt4pairI10QByteArrayS3_EE9QIterableI13QMetaSequenceEN9QtPrivate33QSequentialIterableConvertFunctorIS5_EEEEbT1_EUlPKvPvE_@Base 6.0.0
 _ZTIZN9QMetaType17registerConverterISt4pairI10QByteArrayS2_EN17QtMetaTypePrivate25QPairVariantInterfaceImplENS4_35QPairVariantInterfaceConvertFunctorIS3_EEEEbT1_EUlPKvPvE_@Base 6.0.0
 _ZTIZN9QMetaType19registerMutableViewI5QListIN7KNSCore5EntryEE9QIterableI13QMetaSequenceEN9QtPrivate37QSequentialIterableMutableViewFunctorIS4_EEEEbT1_EUlPvSC_E_@Base 6.0.0
 _ZTIZN9QMetaType19registerMutableViewI5QListISt4pairI10QByteArrayS3_EE9QIterableI13QMetaSequenceEN9QtPrivate37QSequentialIterableMutableViewFunctorIS5_EEEEbT1_EUlPvSD_E_@Base 6.0.0
 _ZTSN11Syndication4Atom4LinkE@Base 6.0.0
 _ZTSN11Syndication4Atom6PersonE@Base 6.0.0
 _ZTSN6Attica7ItemJobINS_7ContentEEE@Base 6.6.0
 _ZTSN6Attica7ListJobINS_7ContentEEE@Base 6.6.0
 _ZTSN7KNSCore10EngineBaseE@Base 6.0.0
 _ZTSN7KNSCore10ItemsModelE@Base 6.0.0
 _ZTSN7KNSCore11ImageLoaderE@Base 6.0.0
 _ZTSN7KNSCore11TransactionE@Base 6.0.0
 _ZTSN7KNSCore12InstallationE@Base 6.0.0
 _ZTSN7KNSCore13CommentsModelE@Base 6.0.0
 _ZTSN7KNSCore13ResultsStreamE@Base 6.0.0
 _ZTSN7KNSCore14AtticaProviderE@Base 6.6.0
 _ZTSN7KNSCore14ProvidersModelE@Base 6.0.0
 _ZTSN7KNSCore15QuestionManagerE@Base 6.0.0
 _ZTSN7KNSCore16QuestionListenerE@Base 6.0.0
 _ZTSN7KNSCore5CacheE@Base 6.0.0
 _ZTSN7KNSCore8ProviderE@Base 6.0.0
 _ZTSN7KNSCore8QuestionE@Base 6.0.0
 (arch=armel riscv64)_ZTSN9__gnu_cxx7__mutexE@Base 6.0.0
 (arch=armel riscv64)_ZTSSt11_Mutex_baseILN9__gnu_cxx12_Lock_policyE1EE@Base 6.0.0
 (arch=!armel !riscv64)_ZTSSt11_Mutex_baseILN9__gnu_cxx12_Lock_policyE2EE@Base 6.0.0
 (arch=armel riscv64)_ZTSSt16_Sp_counted_baseILN9__gnu_cxx12_Lock_policyE1EE@Base 6.0.0
 (arch=!armel !riscv64)_ZTSSt16_Sp_counted_baseILN9__gnu_cxx12_Lock_policyE2EE@Base 6.0.0
 _ZTSSt19_Sp_make_shared_tag@Base 6.0.0
 (arch=armel riscv64)_ZTSSt23_Sp_counted_ptr_inplaceIN7KNSCore6AuthorESaIvELN9__gnu_cxx12_Lock_policyE1EE@Base 6.0.0
 (arch=!armel !riscv64)_ZTSSt23_Sp_counted_ptr_inplaceIN7KNSCore6AuthorESaIvELN9__gnu_cxx12_Lock_policyE2EE@Base 6.0.0
 _ZTSZN9QMetaType17registerConverterI5QListIN7KNSCore5EntryEE9QIterableI13QMetaSequenceEN9QtPrivate33QSequentialIterableConvertFunctorIS4_EEEEbT1_EUlPKvPvE_@Base 6.0.0
 _ZTSZN9QMetaType17registerConverterI5QListISt4pairI10QByteArrayS3_EE9QIterableI13QMetaSequenceEN9QtPrivate33QSequentialIterableConvertFunctorIS5_EEEEbT1_EUlPKvPvE_@Base 6.0.0
 _ZTSZN9QMetaType17registerConverterISt4pairI10QByteArrayS2_EN17QtMetaTypePrivate25QPairVariantInterfaceImplENS4_35QPairVariantInterfaceConvertFunctorIS3_EEEEbT1_EUlPKvPvE_@Base 6.0.0
 _ZTSZN9QMetaType19registerMutableViewI5QListIN7KNSCore5EntryEE9QIterableI13QMetaSequenceEN9QtPrivate37QSequentialIterableMutableViewFunctorIS4_EEEEbT1_EUlPvSC_E_@Base 6.0.0
 _ZTSZN9QMetaType19registerMutableViewI5QListISt4pairI10QByteArrayS3_EE9QIterableI13QMetaSequenceEN9QtPrivate37QSequentialIterableMutableViewFunctorIS5_EEEEbT1_EUlPvSD_E_@Base 6.0.0
 _ZTVN7KNSCore10EngineBaseE@Base 6.0.0
 _ZTVN7KNSCore10ItemsModelE@Base 6.0.0
 _ZTVN7KNSCore11ImageLoaderE@Base 6.0.0
 _ZTVN7KNSCore11TransactionE@Base 6.0.0
 _ZTVN7KNSCore12InstallationE@Base 6.0.0
 _ZTVN7KNSCore13CommentsModelE@Base 6.0.0
 _ZTVN7KNSCore13ResultsStreamE@Base 6.0.0
 _ZTVN7KNSCore14AtticaProviderE@Base 6.6.0
 _ZTVN7KNSCore14ProvidersModelE@Base 6.0.0
 _ZTVN7KNSCore15QuestionManagerE@Base 6.0.0
 _ZTVN7KNSCore16QuestionListenerE@Base 6.0.0
 _ZTVN7KNSCore5CacheE@Base 6.0.0
 _ZTVN7KNSCore8ProviderE@Base 6.0.0
 _ZTVN7KNSCore8QuestionE@Base 6.0.0
 (optional=templinst)_ZZN9QMetaType21registerConverterImplI5QListIN7KNSCore5EntryEE9QIterableI13QMetaSequenceEEEbSt8functionIFbPKvPvEES_S_E10unregister@Base 6.0.0
 (optional=templinst)_ZZN9QMetaType21registerConverterImplI5QListISt4pairI10QByteArrayS3_EE9QIterableI13QMetaSequenceEEEbSt8functionIFbPKvPvEES_S_E10unregister@Base 6.0.0
 (optional=templinst)_ZZN9QMetaType21registerConverterImplISt4pairI10QByteArrayS2_EN17QtMetaTypePrivate25QPairVariantInterfaceImplEEEbSt8functionIFbPKvPvEES_S_E10unregister@Base 6.0.0
 (optional=templinst)_ZZN9QMetaType23registerMutableViewImplI5QListIN7KNSCore5EntryEE9QIterableI13QMetaSequenceEEEbSt8functionIFbPvS9_EES_S_E10unregister@Base 6.0.0
 (optional=templinst)_ZZN9QMetaType23registerMutableViewImplI5QListISt4pairI10QByteArrayS3_EE9QIterableI13QMetaSequenceEEEbSt8functionIFbPvSA_EES_S_E10unregister@Base 6.0.0
 _ZZNSt19_Sp_make_shared_tag5_S_tiEvE5__tag@Base 6.0.0
